#include <math.h>
#include <stdio.h>
#include <stdlib.h>
#include <string.h>


int main(){
	
	float s[15],t[15];
     int a=0;
	 
	for(int i=0;i<15;i++)
	{

		scanf("%f",&s[i]);
	if(s[i]==0)
		break;
	else
	{t[i]=s[i];
	a=a+1;
	}
	
	}

int b=0;
	for(int h=0;h<a;h++)
	{for(int k=0;k<a;k++)
		{if (t[h]/t[k]==2)
		
		b=b+1;
		}
	}
	printf("%d",b);

	return 0;
}